; Function Attrs: mustprogress uwtable
define noundef zeroext i1 @_ZNK3g2o17EdgeLine2DPointXY5writeERSo(ptr noundef nonnull readonly align 8 captures(none) dereferenceable(288) %0, ptr noundef nonnull align 8 dereferenceable(8) %1) unnamed_addr #4 align 2 personality ptr @__gxx_personality_v0 {
  %3 = getelementptr inbounds nuw i8, ptr %0, i64 176
  %4 = load double, ptr %3, align 8, !tbaa !49
  %5 = tail call noundef nonnull align 8 dereferenceable(8) ptr @_ZNSo9_M_insertIdEERSoT_(ptr noundef nonnull align 8 dereferenceable(8) %1, double noundef %4)
  %6 = tail call noundef nonnull align 8 dereferenceable(8) ptr @_ZSt16__ostream_insertIcSt11char_traitsIcEERSt13basic_ostreamIT_T0_ES6_PKS3_l(ptr noundef nonnull align 8 dereferenceable(8) %5, ptr noundef nonnull @.str, i64 noundef 1)
  %7 = getelementptr inbounds nuw i8, ptr %0, i64 184
  %8 = load double, ptr %7, align 8, !tbaa !49
  %9 = tail call noundef nonnull align 8 dereferenceable(8) ptr @_ZNSo9_M_insertIdEERSoT_(ptr noundef nonnull align 8 dereferenceable(8) %1, double noundef %8)
  %10 = load ptr, ptr %1, align 8, !tbaa !35
  %11 = getelementptr i8, ptr %10, i64 -24
  %12 = load i64, ptr %11, align 8
  %13 = getelementptr inbounds i8, ptr %1, i64 %12
  %14 = getelementptr inbounds nuw i8, ptr %13, i64 32
  %15 = load i32, ptr %14, align 8, !tbaa !51
  %16 = icmp eq i32 %15, 0
  ret i1 %16
}